target datalayout = "e-m:e-p270:32:32-p271:32:32-p272:64:64-i64:64-i128:128-f80:128-n8:16:32:64-S128"
target triple = "x86_64-pc-linux-gnu"

%struct.forward = type { %struct.slurm_node_alias_addrs_t, i16, i16, ptr, i32, i16, i16 }
%struct.slurm_node_alias_addrs_t = type { i64, ptr, ptr, i32, ptr }
%struct.sockaddr_storage = type { i16, [118 x i8], i64 }
%struct.slurm_msg = type { %struct.sockaddr_storage, ptr, i32, i32, i32, i8, i32, i8, i32, ptr, ptr, i32, ptr, ptr, i16, i8, i16, i16, %struct.forward, ptr, %struct.sockaddr_storage, ptr }
%struct.tls_cert_request_msg_t = type { ptr, ptr, ptr }

; Function Attrs: nounwind uwtable
define internal void @_pack_tls_cert_request_msg(ptr noundef %0, ptr noundef %1) #0 {
  %3 = alloca ptr, align 8
  %4 = alloca ptr, align 8
  %5 = alloca ptr, align 8
  %6 = alloca i32, align 4
  %7 = alloca i32, align 4
  %8 = alloca i32, align 4
  store ptr %0, ptr %3, align 8
  store ptr %1, ptr %4, align 8
  call void @llvm.lifetime.start.p0(i64 8, ptr %5) #6
  %9 = load ptr, ptr %3, align 8
  %10 = getelementptr inbounds nuw %struct.slurm_msg, ptr %9, i32 0, i32 13
  %11 = load ptr, ptr %10, align 8
  store ptr %11, ptr %5, align 8
  %12 = load ptr, ptr %3, align 8
  %13 = getelementptr inbounds nuw %struct.slurm_msg, ptr %12, i32 0, i32 17
  %14 = load i16, ptr %13, align 2
  %15 = zext i16 %14 to i32
  %16 = icmp sge i32 %15, 10240
  br i1 %16, label %17, label %78

17:                                               ; preds = %2
  br label %18

18:                                               ; preds = %17
  call void @llvm.lifetime.start.p0(i64 4, ptr %6) #6
  store i32 0, ptr %6, align 4
  %19 = load ptr, ptr %5, align 8
  %20 = getelementptr inbounds nuw %struct.tls_cert_request_msg_t, ptr %19, i32 0, i32 0
  %21 = load ptr, ptr %20, align 8
  %22 = icmp ne ptr %21, null
  br i1 %22, label %23, label %30

23:                                               ; preds = %18
  %24 = load ptr, ptr %5, align 8
  %25 = getelementptr inbounds nuw %struct.tls_cert_request_msg_t, ptr %24, i32 0, i32 0
  %26 = load ptr, ptr %25, align 8
  %27 = call i64 @strlen(ptr noundef %26) #7
  %28 = trunc i64 %27 to i32
  %29 = add i32 %28, 1
  store i32 %29, ptr %6, align 4
  br label %30

30:                                               ; preds = %23, %18
  %31 = load ptr, ptr %5, align 8
  %32 = getelementptr inbounds nuw %struct.tls_cert_request_msg_t, ptr %31, i32 0, i32 0
  %33 = load ptr, ptr %32, align 8
  %34 = load i32, ptr %6, align 4
  %35 = load ptr, ptr %4, align 8
  call void @packmem(ptr noundef %33, i32 noundef %34, ptr noundef %35)
  call void @llvm.lifetime.end.p0(i64 4, ptr %6) #6
  br label %36

36:                                               ; preds = %30
  br label %37

37:                                               ; preds = %36
  br label %38

38:                                               ; preds = %37
  call void @llvm.lifetime.start.p0(i64 4, ptr %7) #6
  store i32 0, ptr %7, align 4
  %39 = load ptr, ptr %5, align 8
  %40 = getelementptr inbounds nuw %struct.tls_cert_request_msg_t, ptr %39, i32 0, i32 1
  %41 = load ptr, ptr %40, align 8
  %42 = icmp ne ptr %41, null
  br i1 %42, label %43, label %50

43:                                               ; preds = %38
  %44 = load ptr, ptr %5, align 8
  %45 = getelementptr inbounds nuw %struct.tls_cert_request_msg_t, ptr %44, i32 0, i32 1
  %46 = load ptr, ptr %45, align 8
  %47 = call i64 @strlen(ptr noundef %46) #7
  %48 = trunc i64 %47 to i32
  %49 = add i32 %48, 1
  store i32 %49, ptr %7, align 4
  br label %50

50:                                               ; preds = %43, %38
  %51 = load ptr, ptr %5, align 8
  %52 = getelementptr inbounds nuw %struct.tls_cert_request_msg_t, ptr %51, i32 0, i32 1
  %53 = load ptr, ptr %52, align 8
  %54 = load i32, ptr %7, align 4
  %55 = load ptr, ptr %4, align 8
  call void @packmem(ptr noundef %53, i32 noundef %54, ptr noundef %55)
  call void @llvm.lifetime.end.p0(i64 4, ptr %7) #6
  br label %56

56:                                               ; preds = %50
  br label %57

57:                                               ; preds = %56
  br label %58

58:                                               ; preds = %57
  call void @llvm.lifetime.start.p0(i64 4, ptr %8) #6
  store i32 0, ptr %8, align 4
  %59 = load ptr, ptr %5, align 8
  %60 = getelementptr inbounds nuw %struct.tls_cert_request_msg_t, ptr %59, i32 0, i32 2
  %61 = load ptr, ptr %60, align 8
  %62 = icmp ne ptr %61, null
  br i1 %62, label %63, label %70

63:                                               ; preds = %58
  %64 = load ptr, ptr %5, align 8
  %65 = getelementptr inbounds nuw %struct.tls_cert_request_msg_t, ptr %64, i32 0, i32 2
  %66 = load ptr, ptr %65, align 8
  %67 = call i64 @strlen(ptr noundef %66) #7
  %68 = trunc i64 %67 to i32
  %69 = add i32 %68, 1
  store i32 %69, ptr %8, align 4
  br label %70

70:                                               ; preds = %63, %58
  %71 = load ptr, ptr %5, align 8
  %72 = getelementptr inbounds nuw %struct.tls_cert_request_msg_t, ptr %71, i32 0, i32 2
  %73 = load ptr, ptr %72, align 8
  %74 = load i32, ptr %8, align 4
  %75 = load ptr, ptr %4, align 8
  call void @packmem(ptr noundef %73, i32 noundef %74, ptr noundef %75)
  call void @llvm.lifetime.end.p0(i64 4, ptr %8) #6
  br label %76

76:                                               ; preds = %70
  br label %77

77:                                               ; preds = %76
  br label %78

78:                                               ; preds = %77, %2
  call void @llvm.lifetime.end.p0(i64 8, ptr %5) #6
  ret void
}