; Function Attrs: nounwind uwtable
define internal fastcc void @_pack_tls_cert_request_msg(ptr readonly captures(none) %.200.val, i16 %.214.val, ptr noundef %0) unnamed_addr #0 {
  %2 = icmp ugt i16 %.214.val, 10239
  br i1 %2, label %3, label %24

3:                                                ; preds = %1
  %4 = load ptr, ptr %.200.val, align 8
  %.not = icmp eq ptr %4, null
  br i1 %.not, label %9, label %5

5:                                                ; preds = %3
  %6 = tail call i64 @strlen(ptr noundef nonnull dereferenceable(1) %4) #8
  %7 = trunc i64 %6 to i32
  %8 = add i32 %7, 1
  br label %9

9:                                                ; preds = %5, %3
  %.017 = phi i32 [ %8, %5 ], [ 0, %3 ]
  tail call void @packmem(ptr noundef %4, i32 noundef %.017, ptr noundef %0) #7
  %10 = getelementptr inbounds nuw i8, ptr %.200.val, i64 8
  %11 = load ptr, ptr %10, align 8
  %.not21 = icmp eq ptr %11, null
  br i1 %.not21, label %16, label %12

12:                                               ; preds = %9
  %13 = tail call i64 @strlen(ptr noundef nonnull dereferenceable(1) %11) #8
  %14 = trunc i64 %13 to i32
  %15 = add i32 %14, 1
  br label %16

16:                                               ; preds = %12, %9
  %.016 = phi i32 [ %15, %12 ], [ 0, %9 ]
  tail call void @packmem(ptr noundef %11, i32 noundef %.016, ptr noundef %0) #7
  %17 = getelementptr inbounds nuw i8, ptr %.200.val, i64 16
  %18 = load ptr, ptr %17, align 8
  %.not22 = icmp eq ptr %18, null
  br i1 %.not22, label %23, label %19

19:                                               ; preds = %16
  %20 = tail call i64 @strlen(ptr noundef nonnull dereferenceable(1) %18) #8
  %21 = trunc i64 %20 to i32
  %22 = add i32 %21, 1
  br label %23

23:                                               ; preds = %19, %16
  %.0 = phi i32 [ %22, %19 ], [ 0, %16 ]
  tail call void @packmem(ptr noundef %18, i32 noundef %.0, ptr noundef %0) #7
  br label %24

24:                                               ; preds = %23, %1
  ret void
}